target datalayout = "e-m:e-p270:32:32-p271:32:32-p272:64:64-i64:64-i128:128-f80:128-n8:16:32:64-S128"
target triple = "x86_64-pc-linux-gnu"

%struct._object = type { %union.anon, ptr }
%union.anon = type { i64 }
%struct.anon = type { i32, i32 }

@.str.4 = private unnamed_addr constant [16 x i8] c"benchmark_locks\00", align 1

; Function Attrs: alwaysinline nounwind uwtable
define internal i32 @_Py_IsImmortal(ptr noundef %0) #6 {
  %2 = alloca ptr, align 8
  store ptr %0, ptr %2, align 8, !tbaa !3
  %3 = load ptr, ptr %2, align 8, !tbaa !3
  %4 = getelementptr inbounds nuw %struct._object, ptr %3, i32 0, i32 0
  %5 = getelementptr inbounds nuw %struct.anon, ptr %4, i32 0, i32 0
  %6 = load i32, ptr %5, align 8, !tbaa !15
  %7 = icmp slt i32 %6, 0
  %8 = zext i1 %7 to i32
  ret i32 %8
}

; Function Attrs: alwaysinline nounwind uwtable
define internal void @Py_DECREF(ptr noundef %0) #6 {
  %2 = alloca ptr, align 8
  store ptr %0, ptr %2, align 8, !tbaa !3
  %3 = load ptr, ptr %2, align 8, !tbaa !3
  %4 = call i32 @_Py_IsImmortal(ptr noundef %3)
  %5 = icmp ne i32 %4, 0
  br i1 %5, label %6, label %7

6:                                                ; preds = %1
  br label %16

7:                                                ; preds = %1
  %8 = load ptr, ptr %2, align 8, !tbaa !3
  %9 = getelementptr inbounds nuw %struct._object, ptr %8, i32 0, i32 0
  %10 = getelementptr inbounds nuw %struct.anon, ptr %9, i32 0, i32 0
  %11 = load i32, ptr %10, align 8, !tbaa !15
  %12 = add i32 %11, -1
  store i32 %12, ptr %10, align 8, !tbaa !15
  %13 = icmp eq i32 %12, 0
  br i1 %13, label %14, label %16

14:                                               ; preds = %7
  %15 = load ptr, ptr %2, align 8, !tbaa !3
  call void @_Py_Dealloc(ptr noundef %15)
  br label %16

16:                                               ; preds = %6, %14, %7
  ret void
}

; Function Attrs: nounwind uwtable
define internal ptr @_testinternalcapi_benchmark_locks(ptr noundef %0, ptr noundef %1, i64 noundef %2) #0 {
  %4 = alloca ptr, align 8
  %5 = alloca ptr, align 8
  %6 = alloca ptr, align 8
  %7 = alloca i64, align 8
  %8 = alloca ptr, align 8
  %9 = alloca i64, align 8
  %10 = alloca i32, align 4
  %11 = alloca i32, align 4
  %12 = alloca i32, align 4
  %13 = alloca i64, align 8
  %14 = alloca ptr, align 8
  %15 = alloca i32, align 4
  store ptr %0, ptr %5, align 8, !tbaa !3
  store ptr %1, ptr %6, align 8, !tbaa !29
  store i64 %2, ptr %7, align 8, !tbaa !18
  call void @llvm.lifetime.start.p0(i64 8, ptr %8) #8
  store ptr null, ptr %8, align 8, !tbaa !3
  call void @llvm.lifetime.start.p0(i64 8, ptr %9) #8
  call void @llvm.lifetime.start.p0(i64 4, ptr %10) #8
  store i32 1, ptr %10, align 4, !tbaa !14
  call void @llvm.lifetime.start.p0(i64 4, ptr %11) #8
  store i32 1, ptr %11, align 4, !tbaa !14
  call void @llvm.lifetime.start.p0(i64 4, ptr %12) #8
  store i32 1000, ptr %12, align 4, !tbaa !14
  %16 = load i64, ptr %7, align 8, !tbaa !18
  %17 = icmp sle i64 1, %16
  br i1 %17, label %18, label %21

18:                                               ; preds = %3
  %19 = load i64, ptr %7, align 8, !tbaa !18
  %20 = icmp sle i64 %19, 4
  br i1 %20, label %26, label %21

21:                                               ; preds = %18, %3
  %22 = load i64, ptr %7, align 8, !tbaa !18
  %23 = call i32 @_PyArg_CheckPositional(ptr noundef @.str.4, i64 noundef %22, i64 noundef 1, i64 noundef 4)
  %24 = icmp ne i32 %23, 0
  br i1 %24, label %26, label %25

25:                                               ; preds = %21
  br label %98

26:                                               ; preds = %21, %18
  call void @llvm.lifetime.start.p0(i64 8, ptr %13) #8
  store i64 -1, ptr %13, align 8, !tbaa !18
  call void @llvm.lifetime.start.p0(i64 8, ptr %14) #8
  %27 = load ptr, ptr %6, align 8, !tbaa !29
  %28 = getelementptr ptr, ptr %27, i64 0
  %29 = load ptr, ptr %28, align 8, !tbaa !3
  %30 = call ptr @_PyNumber_Index(ptr noundef %29)
  store ptr %30, ptr %14, align 8, !tbaa !3
  %31 = load ptr, ptr %14, align 8, !tbaa !3
  %32 = icmp ne ptr %31, null
  br i1 %32, label %33, label %37

33:                                               ; preds = %26
  %34 = load ptr, ptr %14, align 8, !tbaa !3
  %35 = call i64 @PyLong_AsSsize_t(ptr noundef %34)
  store i64 %35, ptr %13, align 8, !tbaa !18
  %36 = load ptr, ptr %14, align 8, !tbaa !3
  call void @Py_DECREF(ptr noundef %36)
  br label %37

37:                                               ; preds = %33, %26
  %38 = load i64, ptr %13, align 8, !tbaa !18
  %39 = icmp eq i64 %38, -1
  br i1 %39, label %40, label %44

40:                                               ; preds = %37
  %41 = call ptr @PyErr_Occurred()
  %42 = icmp ne ptr %41, null
  br i1 %42, label %43, label %44

43:                                               ; preds = %40
  store i32 2, ptr %15, align 4
  br label %46

44:                                               ; preds = %40, %37
  %45 = load i64, ptr %13, align 8, !tbaa !18
  store i64 %45, ptr %9, align 8, !tbaa !18
  store i32 0, ptr %15, align 4
  br label %46

46:                                               ; preds = %43, %44
  call void @llvm.lifetime.end.p0(i64 8, ptr %14) #8
  call void @llvm.lifetime.end.p0(i64 8, ptr %13) #8
  %47 = load i32, ptr %15, align 4
  switch i32 %47, label %100 [
    i32 0, label %48
    i32 2, label %98
  ]

48:                                               ; preds = %46
  %49 = load i64, ptr %7, align 8, !tbaa !18
  %50 = icmp slt i64 %49, 2
  br i1 %50, label %51, label %52

51:                                               ; preds = %48
  br label %91

52:                                               ; preds = %48
  %53 = load ptr, ptr %6, align 8, !tbaa !29
  %54 = getelementptr ptr, ptr %53, i64 1
  %55 = load ptr, ptr %54, align 8, !tbaa !3
  %56 = call i32 @PyObject_IsTrue(ptr noundef %55)
  store i32 %56, ptr %10, align 4, !tbaa !14
  %57 = load i32, ptr %10, align 4, !tbaa !14
  %58 = icmp slt i32 %57, 0
  br i1 %58, label %59, label %60

59:                                               ; preds = %52
  br label %98

60:                                               ; preds = %52
  %61 = load i64, ptr %7, align 8, !tbaa !18
  %62 = icmp slt i64 %61, 3
  br i1 %62, label %63, label %64

63:                                               ; preds = %60
  br label %91

64:                                               ; preds = %60
  %65 = load ptr, ptr %6, align 8, !tbaa !29
  %66 = getelementptr ptr, ptr %65, i64 2
  %67 = load ptr, ptr %66, align 8, !tbaa !3
  %68 = call i32 @PyLong_AsInt(ptr noundef %67)
  store i32 %68, ptr %11, align 4, !tbaa !14
  %69 = load i32, ptr %11, align 4, !tbaa !14
  %70 = icmp eq i32 %69, -1
  br i1 %70, label %71, label %75

71:                                               ; preds = %64
  %72 = call ptr @PyErr_Occurred()
  %73 = icmp ne ptr %72, null
  br i1 %73, label %74, label %75

74:                                               ; preds = %71
  br label %98

75:                                               ; preds = %71, %64
  %76 = load i64, ptr %7, align 8, !tbaa !18
  %77 = icmp slt i64 %76, 4
  br i1 %77, label %78, label %79

78:                                               ; preds = %75
  br label %91

79:                                               ; preds = %75
  %80 = load ptr, ptr %6, align 8, !tbaa !29
  %81 = getelementptr ptr, ptr %80, i64 3
  %82 = load ptr, ptr %81, align 8, !tbaa !3
  %83 = call i32 @PyLong_AsInt(ptr noundef %82)
  store i32 %83, ptr %12, align 4, !tbaa !14
  %84 = load i32, ptr %12, align 4, !tbaa !14
  %85 = icmp eq i32 %84, -1
  br i1 %85, label %86, label %90

86:                                               ; preds = %79
  %87 = call ptr @PyErr_Occurred()
  %88 = icmp ne ptr %87, null
  br i1 %88, label %89, label %90

89:                                               ; preds = %86
  br label %98

90:                                               ; preds = %86, %79
  br label %91

91:                                               ; preds = %90, %78, %63, %51
  %92 = load ptr, ptr %5, align 8, !tbaa !3
  %93 = load i64, ptr %9, align 8, !tbaa !18
  %94 = load i32, ptr %10, align 4, !tbaa !14
  %95 = load i32, ptr %11, align 4, !tbaa !14
  %96 = load i32, ptr %12, align 4, !tbaa !14
  %97 = call ptr @_testinternalcapi_benchmark_locks_impl(ptr noundef %92, i64 noundef %93, i32 noundef %94, i32 noundef %95, i32 noundef %96)
  store ptr %97, ptr %8, align 8, !tbaa !3
  br label %98

98:                                               ; preds = %91, %46, %89, %74, %59, %25
  %99 = load ptr, ptr %8, align 8, !tbaa !3
  store ptr %99, ptr %4, align 8
  store i32 1, ptr %15, align 4
  br label %100

100:                                              ; preds = %98, %46
  call void @llvm.lifetime.end.p0(i64 4, ptr %12) #8
  call void @llvm.lifetime.end.p0(i64 4, ptr %11) #8
  call void @llvm.lifetime.end.p0(i64 4, ptr %10) #8
  call void @llvm.lifetime.end.p0(i64 8, ptr %9) #8
  call void @llvm.lifetime.end.p0(i64 8, ptr %8) #8
  %101 = load ptr, ptr %4, align 8
  ret ptr %101
}