; Function Attrs: nounwind uwtable
define internal ptr @_testinternalcapi_benchmark_locks(ptr readnone captures(none) %0, ptr noundef readonly captures(none) %1, i64 noundef %2) #0 {
  %4 = add i64 %2, -1
  %or.cond = icmp ult i64 %4, 4
  br i1 %or.cond, label %7, label %5

5:                                                ; preds = %3
  %6 = tail call i32 @_PyArg_CheckPositional(ptr noundef nonnull @.str.4, i64 noundef %2, i64 noundef 1, i64 noundef 4) #6
  %.not = icmp eq i32 %6, 0
  br i1 %.not, label %46, label %7

7:                                                ; preds = %3, %5
  %8 = load ptr, ptr %1, align 8, !tbaa !24
  %9 = tail call ptr @_PyNumber_Index(ptr noundef %8) #6
  %.not37 = icmp eq ptr %9, null
  br i1 %.not37, label %Py_DECREF.exit.thread, label %10

10:                                               ; preds = %7
  %11 = tail call i64 @PyLong_AsSsize_t(ptr noundef nonnull %9) #6
  %12 = load i32, ptr %9, align 8, !tbaa !26
  %.not.i = icmp sgt i32 %12, -1
  br i1 %.not.i, label %13, label %Py_DECREF.exit

13:                                               ; preds = %10
  %14 = add nsw i32 %12, -1
  store i32 %14, ptr %9, align 8, !tbaa !26
  %15 = icmp eq i32 %14, 0
  br i1 %15, label %16, label %Py_DECREF.exit

16:                                               ; preds = %13
  tail call void @_Py_Dealloc(ptr noundef nonnull %9) #6
  br label %Py_DECREF.exit

Py_DECREF.exit:                                   ; preds = %16, %13, %10
  %17 = icmp eq i64 %11, -1
  br i1 %17, label %Py_DECREF.exit.thread, label %19

Py_DECREF.exit.thread:                            ; preds = %7, %Py_DECREF.exit
  %18 = tail call ptr @PyErr_Occurred() #6
  %.not38 = icmp eq ptr %18, null
  br i1 %.not38, label %19, label %46

19:                                               ; preds = %Py_DECREF.exit.thread, %Py_DECREF.exit
  %.02743.ph = phi i64 [ %11, %Py_DECREF.exit ], [ -1, %Py_DECREF.exit.thread ]
  %20 = icmp slt i64 %2, 2
  br i1 %20, label %44, label %21

21:                                               ; preds = %19
  %22 = getelementptr i8, ptr %1, i64 8
  %23 = load ptr, ptr %22, align 8, !tbaa !24
  %24 = tail call i32 @PyObject_IsTrue(ptr noundef %23) #6
  %25 = icmp slt i32 %24, 0
  br i1 %25, label %46, label %26

26:                                               ; preds = %21
  %27 = icmp eq i64 %2, 2
  br i1 %27, label %44, label %28

28:                                               ; preds = %26
  %29 = getelementptr i8, ptr %1, i64 16
  %30 = load ptr, ptr %29, align 8, !tbaa !24
  %31 = tail call i32 @PyLong_AsInt(ptr noundef %30) #6
  %32 = icmp eq i32 %31, -1
  br i1 %32, label %33, label %35

33:                                               ; preds = %28
  %34 = tail call ptr @PyErr_Occurred() #6
  %.not39 = icmp eq ptr %34, null
  br i1 %.not39, label %35, label %46

35:                                               ; preds = %33, %28
  %36 = icmp samesign ult i64 %2, 4
  br i1 %36, label %44, label %37

37:                                               ; preds = %35
  %38 = getelementptr i8, ptr %1, i64 24
  %39 = load ptr, ptr %38, align 8, !tbaa !24
  %40 = tail call i32 @PyLong_AsInt(ptr noundef %39) #6
  %41 = icmp eq i32 %40, -1
  br i1 %41, label %42, label %44

42:                                               ; preds = %37
  %43 = tail call ptr @PyErr_Occurred() #6
  %.not40 = icmp eq ptr %43, null
  br i1 %.not40, label %44, label %46

44:                                               ; preds = %37, %42, %35, %26, %19
  %.030 = phi i32 [ 1, %19 ], [ %24, %26 ], [ %24, %35 ], [ %24, %42 ], [ %24, %37 ]
  %.029 = phi i32 [ 1, %19 ], [ 1, %26 ], [ %31, %35 ], [ %31, %42 ], [ %31, %37 ]
  %.028 = phi i32 [ 1000, %19 ], [ 1000, %26 ], [ 1000, %35 ], [ -1, %42 ], [ %40, %37 ]
  %45 = tail call fastcc ptr @_testinternalcapi_benchmark_locks_impl(i64 noundef %.02743.ph, i32 noundef %.030, i32 noundef %.029, i32 noundef %.028)
  br label %46

46:                                               ; preds = %Py_DECREF.exit.thread, %44, %5, %21, %33, %42
  %.032 = phi ptr [ %45, %44 ], [ null, %21 ], [ null, %33 ], [ null, %42 ], [ null, %5 ], [ null, %Py_DECREF.exit.thread ]
  ret ptr %.032
}